target datalayout = "e-m:e-p270:32:32-p271:32:32-p272:64:64-i64:64-i128:128-f80:128-n8:16:32:64-S128"
target triple = "x86_64-pc-linux-gnu"

@proto_opcua = external global i32, align 4
@g_opcua_default_sig_len = external global i32, align 4

; Function Attrs: inlinehint nounwind null_pointer_is_valid sspstrong uwtable
define internal zeroext i8 @extract_signature_length(i64 noundef %0) #3 {
  %2 = alloca i64, align 8
  store i64 %0, ptr %2, align 8
  %3 = load i64, ptr %2, align 8
  %4 = lshr i64 %3, 8
  %5 = trunc i64 %4 to i8
  ret i8 %5
}

; Function Attrs: inlinehint nounwind null_pointer_is_valid sspstrong uwtable
define internal i32 @extract_message_mode(i64 noundef %0) #3 {
  %2 = alloca i64, align 8
  store i64 %0, ptr %2, align 8
  %3 = load i64, ptr %2, align 8
  %4 = and i64 %3, 255
  %5 = trunc i64 %4 to i32
  ret i32 %5
}

; Function Attrs: null_pointer_is_valid sspstrong uwtable
define hidden void @get_encryption_info(ptr noundef %0, ptr noundef %1, ptr noundef %2) #0 {
  %4 = alloca ptr, align 8
  %5 = alloca ptr, align 8
  %6 = alloca ptr, align 8
  %7 = alloca ptr, align 8
  %8 = alloca i64, align 8
  store ptr %0, ptr %4, align 8
  store ptr %1, ptr %5, align 8
  store ptr %2, ptr %6, align 8
  call void @llvm.lifetime.start.p0(i64 8, ptr %7) #6
  %9 = load ptr, ptr %4, align 8
  %10 = call ptr @find_conversation_pinfo(ptr noundef %9, i32 noundef 0)
  store ptr %10, ptr %7, align 8
  %11 = load ptr, ptr %7, align 8
  %12 = icmp ne ptr %11, null
  br i1 %12, label %13, label %36

13:                                               ; preds = %3
  call void @llvm.lifetime.start.p0(i64 8, ptr %8) #6
  %14 = load ptr, ptr %7, align 8
  %15 = load i32, ptr @proto_opcua, align 4
  %16 = call ptr @conversation_get_proto_data(ptr noundef %14, i32 noundef %15)
  %17 = ptrtoint ptr %16 to i64
  store i64 %17, ptr %8, align 8
  %18 = load i64, ptr %8, align 8
  %19 = icmp eq i64 %18, 0
  br i1 %19, label %20, label %28

20:                                               ; preds = %13
  %21 = load i32, ptr @g_opcua_default_sig_len, align 4
  %22 = icmp ne i32 %21, 0
  %23 = select i1 %22, i32 4, i32 1
  %24 = load ptr, ptr %5, align 8
  store i32 %23, ptr %24, align 4
  %25 = load i32, ptr @g_opcua_default_sig_len, align 4
  %26 = trunc i32 %25 to i8
  %27 = load ptr, ptr %6, align 8
  store i8 %26, ptr %27, align 1
  br label %35

28:                                               ; preds = %13
  %29 = load i64, ptr %8, align 8
  %30 = call i32 @extract_message_mode(i64 noundef %29)
  %31 = load ptr, ptr %5, align 8
  store i32 %30, ptr %31, align 4
  %32 = load i64, ptr %8, align 8
  %33 = call zeroext i8 @extract_signature_length(i64 noundef %32)
  %34 = load ptr, ptr %6, align 8
  store i8 %33, ptr %34, align 1
  br label %35

35:                                               ; preds = %28, %20
  call void @llvm.lifetime.end.p0(i64 8, ptr %8) #6
  br label %36

36:                                               ; preds = %35, %3
  call void @llvm.lifetime.end.p0(i64 8, ptr %7) #6
  ret void
}