; Function Attrs: null_pointer_is_valid sspstrong uwtable
define hidden void @get_encryption_info(ptr noundef %0, ptr noundef writeonly captures(none) %1, ptr noundef writeonly captures(none) %2) local_unnamed_addr #0 {
  %4 = tail call ptr @find_conversation_pinfo(ptr noundef %0, i32 noundef 0)
  %.not = icmp eq ptr %4, null
  br i1 %.not, label %21, label %5

5:                                                ; preds = %3
  %6 = load i32, ptr @proto_opcua, align 4
  %7 = tail call ptr @conversation_get_proto_data(ptr noundef nonnull %4, i32 noundef %6)
  %8 = icmp eq ptr %7, null
  br i1 %8, label %9, label %14

9:                                                ; preds = %5
  %10 = load i32, ptr @g_opcua_default_sig_len, align 4
  %.not10 = icmp eq i32 %10, 0
  %11 = select i1 %.not10, i32 1, i32 4
  store i32 %11, ptr %1, align 4
  %12 = load i32, ptr @g_opcua_default_sig_len, align 4
  %13 = trunc i32 %12 to i8
  br label %20

14:                                               ; preds = %5
  %15 = ptrtoint ptr %7 to i64
  %16 = trunc i64 %15 to i32
  %17 = and i32 %16, 255
  store i32 %17, ptr %1, align 4
  %18 = lshr i64 %15, 8
  %19 = trunc i64 %18 to i8
  br label %20

20:                                               ; preds = %14, %9
  %storemerge = phi i8 [ %19, %14 ], [ %13, %9 ]
  store i8 %storemerge, ptr %2, align 1
  br label %21

21:                                               ; preds = %20, %3
  ret void
}